target datalayout = "e-m:e-p270:32:32-p271:32:32-p272:64:64-i64:64-i128:128-f80:128-n8:16:32:64-S128"
target triple = "x86_64-pc-linux-gnu"

%"struct.Luau::EqSat::Id" = type { i32 }
%"class.std::vector.0" = type { %"struct.std::_Vector_base.1" }
%"struct.std::_Vector_base.1" = type { %"struct.std::_Vector_base<Luau::EqSat::Id, std::allocator<Luau::EqSat::Id>>::_Vector_impl" }
%"struct.std::_Vector_base<Luau::EqSat::Id, std::allocator<Luau::EqSat::Id>>::_Vector_impl" = type { %"struct.std::_Vector_base<Luau::EqSat::Id, std::allocator<Luau::EqSat::Id>>::_Vector_impl_data" }
%"struct.std::_Vector_base<Luau::EqSat::Id, std::allocator<Luau::EqSat::Id>>::_Vector_impl_data" = type { ptr, ptr, ptr }
%"class.std::basic_string_view" = type { i64, ptr }
%"struct.Luau::EqSatSimplification::StringCache" = type { %"class.Luau::Allocator", %"class.Luau::DenseHashMap", %"class.std::vector.8" }
%"class.Luau::Allocator" = type { ptr, i64 }
%"class.Luau::DenseHashMap" = type { %"class.Luau::detail::DenseHashTable" }
%"class.Luau::detail::DenseHashTable" = type <{ ptr, i64, i64, %"class.std::basic_string_view", [8 x i8] }>
%"class.std::vector.8" = type { %"struct.std::_Vector_base.9" }
%"struct.std::_Vector_base.9" = type { %"struct.std::_Vector_base<std::basic_string_view<char>, std::allocator<std::basic_string_view<char>>>::_Vector_impl" }
%"struct.std::_Vector_base<std::basic_string_view<char>, std::allocator<std::basic_string_view<char>>>::_Vector_impl" = type { %"struct.std::_Vector_base<std::basic_string_view<char>, std::allocator<std::basic_string_view<char>>>::_Vector_impl_data" }
%"struct.std::_Vector_base<std::basic_string_view<char>, std::allocator<std::basic_string_view<char>>>::_Vector_impl_data" = type { ptr, ptr, ptr }
%"struct.Luau::NotNull" = type { ptr }
%"struct.std::__detail::_Hash_node_base" = type { ptr }
%"struct.std::__detail::_Prime_rehash_policy" = type { float, i64 }
%"class.std::unordered_map.109" = type { %"class.std::_Hashtable.110" }
%"class.std::_Hashtable.110" = type { ptr, i64, %"struct.std::__detail::_Hash_node_base", i64, %"struct.std::__detail::_Prime_rehash_policy", ptr }
%"struct.Luau::EqSat::EGraph" = type { [8 x i8], %"struct.Luau::EqSat::UnionFind", %"class.std::unordered_map", %"class.std::unordered_map.26", %"class.std::vector.0" }
%"struct.Luau::EqSat::UnionFind" = type { %"class.std::vector.0", %"class.std::vector.16" }
%"class.std::vector.16" = type { %"struct.std::_Vector_base.17" }
%"struct.std::_Vector_base.17" = type { %"struct.std::_Vector_base<int, std::allocator<int>>::_Vector_impl" }
%"struct.std::_Vector_base<int, std::allocator<int>>::_Vector_impl" = type { %"struct.std::_Vector_base<int, std::allocator<int>>::_Vector_impl_data" }
%"struct.std::_Vector_base<int, std::allocator<int>>::_Vector_impl_data" = type { ptr, ptr, ptr }
%"class.std::unordered_map" = type { %"class.std::_Hashtable" }
%"class.std::_Hashtable" = type { ptr, i64, %"struct.std::__detail::_Hash_node_base", i64, %"struct.std::__detail::_Prime_rehash_policy", ptr }
%"class.std::unordered_map.26" = type { %"class.std::_Hashtable.27" }
%"class.std::_Hashtable.27" = type { ptr, i64, %"struct.std::__detail::_Hash_node_base", i64, %"struct.std::__detail::_Prime_rehash_policy", ptr }
%"struct.Luau::NotNull.172" = type { ptr }
%"struct.Luau::EqSatSimplification::Simplifier" = type { %"struct.Luau::NotNull.172", %"struct.Luau::NotNull", %"struct.Luau::EqSat::EGraph", %"struct.Luau::EqSatSimplification::StringCache", %"class.std::unordered_map.109", %"class.std::vector.333" }
%"class.std::vector.333" = type { %"struct.std::_Vector_base.334" }
%"struct.std::_Vector_base.334" = type { %"struct.std::_Vector_base<Luau::EqSatSimplification::Subst, std::allocator<Luau::EqSatSimplification::Subst>>::_Vector_impl" }
%"struct.std::_Vector_base<Luau::EqSatSimplification::Subst, std::allocator<Luau::EqSatSimplification::Subst>>::_Vector_impl" = type { %"struct.std::_Vector_base<Luau::EqSatSimplification::Subst, std::allocator<Luau::EqSatSimplification::Subst>>::_Vector_impl_data" }
%"struct.std::_Vector_base<Luau::EqSatSimplification::Subst, std::allocator<Luau::EqSatSimplification::Subst>>::_Vector_impl_data" = type { ptr, ptr, ptr }

@.str.88 = private unnamed_addr constant [4 x i8] c" - \00", align 1

; Function Attrs: mustprogress uwtable
define dso_local void @_ZN4Luau19EqSatSimplification10Simplifier5substENS_5EqSat2IdES3_(ptr noundef nonnull align 8 dereferenceable(376) %0, i32 %1, i32 %2) #6 align 2 {
  %4 = alloca %"struct.Luau::EqSat::Id", align 4
  %5 = alloca %"struct.Luau::EqSat::Id", align 4
  %6 = alloca ptr, align 8
  %7 = getelementptr inbounds nuw %"struct.Luau::EqSat::Id", ptr %4, i32 0, i32 0
  store i32 %1, ptr %7, align 4
  %8 = getelementptr inbounds nuw %"struct.Luau::EqSat::Id", ptr %5, i32 0, i32 0
  store i32 %2, ptr %8, align 4
  store ptr %0, ptr %6, align 8, !tbaa !533
  %9 = load ptr, ptr %6, align 8
  %10 = getelementptr inbounds nuw %"struct.Luau::EqSatSimplification::Simplifier", ptr %9, i32 0, i32 5
  %11 = call noundef nonnull align 8 dereferenceable(56) ptr @_ZNSt6vectorIN4Luau19EqSatSimplification5SubstESaIS2_EE12emplace_backIJRNS0_5EqSat2IdES8_RA4_KcEEERS2_DpOT_(ptr noundef nonnull align 8 dereferenceable(24) %10, ptr noundef nonnull align 4 dereferenceable(4) %4, ptr noundef nonnull align 4 dereferenceable(4) %5, ptr noundef nonnull align 1 dereferenceable(4) @.str.88)
  ret void
}