; Function Attrs: mustprogress uwtable
define dso_local void @_ZN4Luau19EqSatSimplification10Simplifier5substENS_5EqSat2IdES3_(ptr noundef nonnull align 8 dereferenceable(376) %0, i32 %1, i32 %2) local_unnamed_addr #5 align 2 {
  %4 = alloca %"struct.Luau::EqSat::Id", align 4
  %5 = alloca %"struct.Luau::EqSat::Id", align 4
  store i32 %1, ptr %4, align 4
  store i32 %2, ptr %5, align 4
  %6 = getelementptr inbounds nuw i8, ptr %0, i64 352
  %7 = call noundef nonnull align 8 dereferenceable(56) ptr @_ZNSt6vectorIN4Luau19EqSatSimplification5SubstESaIS2_EE12emplace_backIJRNS0_5EqSat2IdES8_RA4_KcEEERS2_DpOT_(ptr noundef nonnull align 8 dereferenceable(24) %6, ptr noundef nonnull align 4 dereferenceable(4) %4, ptr noundef nonnull align 4 dereferenceable(4) %5, ptr noundef nonnull align 1 dereferenceable(4) @.str.88)
  ret void
}